target datalayout = "e-m:e-p270:32:32-p271:32:32-p272:64:64-i64:64-i128:128-f80:128-n8:16:32:64-S128"
target triple = "x86_64-unknown-linux-gnu"

%struct.mz_zip_archive = type { i64, i64, i32, i32, i32, i32, i64, ptr, ptr, ptr, ptr, ptr, ptr, ptr, ptr, ptr }
%struct.mz_zip_internal_state_tag = type { %struct.mz_zip_array, %struct.mz_zip_array, %struct.mz_zip_array, i32, i32, i32, ptr, i64, ptr, i64, i64 }
%struct.mz_zip_array = type { ptr, i64, i64, i32 }

; Function Attrs: nounwind uwtable
define hidden i32 @mz_zip_reader_is_file_encrypted(ptr noundef %pZip, i32 noundef %file_index) #0 {
entry:
  %retval.i = alloca ptr, align 8
  %pZip.addr.i = alloca ptr, align 8
  %file_index.addr.i = alloca i32, align 4
  %retval = alloca i32, align 4
  %pZip.addr = alloca ptr, align 8
  %file_index.addr = alloca i32, align 4
  %m_bit_flag = alloca i32, align 4
  %p = alloca ptr, align 8
  store ptr %pZip, ptr %pZip.addr, align 8
  store i32 %file_index, ptr %file_index.addr, align 4
  %0 = load ptr, ptr %pZip.addr, align 8
  %1 = load i32, ptr %file_index.addr, align 4
  store ptr %0, ptr %pZip.addr.i, align 8
  store i32 %1, ptr %file_index.addr.i, align 4
  %2 = load ptr, ptr %pZip.addr.i, align 8
  %tobool.i = icmp ne ptr %2, null
  br i1 %tobool.i, label %lor.lhs.false.i, label %if.then.i

lor.lhs.false.i:                                  ; preds = %entry
  %3 = load ptr, ptr %pZip.addr.i, align 8
  %m_pState.i = getelementptr inbounds %struct.mz_zip_archive, ptr %3, i32 0, i32 15
  %4 = load ptr, ptr %m_pState.i, align 8
  %tobool1.i = icmp ne ptr %4, null
  br i1 %tobool1.i, label %lor.lhs.false2.i, label %if.then.i

lor.lhs.false2.i:                                 ; preds = %lor.lhs.false.i
  %5 = load i32, ptr %file_index.addr.i, align 4
  %6 = load ptr, ptr %pZip.addr.i, align 8
  %m_total_files.i = getelementptr inbounds %struct.mz_zip_archive, ptr %6, i32 0, i32 2
  %7 = load i32, ptr %m_total_files.i, align 8
  %cmp.i = icmp uge i32 %5, %7
  br i1 %cmp.i, label %if.then.i, label %lor.lhs.false3.i

lor.lhs.false3.i:                                 ; preds = %lor.lhs.false2.i
  %8 = load ptr, ptr %pZip.addr.i, align 8
  %m_zip_mode.i = getelementptr inbounds %struct.mz_zip_archive, ptr %8, i32 0, i32 3
  %9 = load i32, ptr %m_zip_mode.i, align 4
  %cmp4.i = icmp ne i32 %9, 1
  br i1 %cmp4.i, label %if.then.i, label %if.end.i

if.then.i:                                        ; preds = %lor.lhs.false3.i, %lor.lhs.false2.i, %lor.lhs.false.i, %entry
  store ptr null, ptr %retval.i, align 8
  br label %mz_zip_reader_get_cdh.exit

if.end.i:                                         ; preds = %lor.lhs.false3.i
  %10 = load ptr, ptr %pZip.addr.i, align 8
  %m_pState5.i = getelementptr inbounds %struct.mz_zip_archive, ptr %10, i32 0, i32 15
  %11 = load ptr, ptr %m_pState5.i, align 8
  %12 = load ptr, ptr %11, align 8
  %13 = load ptr, ptr %pZip.addr.i, align 8
  %m_pState6.i = getelementptr inbounds %struct.mz_zip_archive, ptr %13, i32 0, i32 15
  %14 = load ptr, ptr %m_pState6.i, align 8
  %m_central_dir_offsets.i = getelementptr inbounds %struct.mz_zip_internal_state_tag, ptr %14, i32 0, i32 1
  %15 = load ptr, ptr %m_central_dir_offsets.i, align 8
  %16 = load i32, ptr %file_index.addr.i, align 4
  %idxprom.i = zext i32 %16 to i64
  %arrayidx.i = getelementptr inbounds i32, ptr %15, i64 %idxprom.i
  %17 = load i32, ptr %arrayidx.i, align 4
  %idxprom8.i = zext i32 %17 to i64
  %arrayidx9.i = getelementptr inbounds i8, ptr %12, i64 %idxprom8.i
  store ptr %arrayidx9.i, ptr %retval.i, align 8
  br label %mz_zip_reader_get_cdh.exit

mz_zip_reader_get_cdh.exit:                       ; preds = %if.end.i, %if.then.i
  %18 = load ptr, ptr %retval.i, align 8
  store ptr %18, ptr %p, align 8
  %19 = load ptr, ptr %p, align 8
  %tobool = icmp ne ptr %19, null
  br i1 %tobool, label %if.end, label %if.then

if.then:                                          ; preds = %mz_zip_reader_get_cdh.exit
  store i32 0, ptr %retval, align 4
  br label %return

if.end:                                           ; preds = %mz_zip_reader_get_cdh.exit
  %20 = load ptr, ptr %p, align 8
  %add.ptr = getelementptr inbounds i8, ptr %20, i64 8
  %21 = load i16, ptr %add.ptr, align 2
  %conv = zext i16 %21 to i32
  store i32 %conv, ptr %m_bit_flag, align 4
  %22 = load i32, ptr %m_bit_flag, align 4
  %and = and i32 %22, 1
  store i32 %and, ptr %retval, align 4
  br label %return

return:                                           ; preds = %if.end, %if.then
  %23 = load i32, ptr %retval, align 4
  ret i32 %23
}